target datalayout = "e-m:e-p270:32:32-p271:32:32-p272:64:64-i64:64-i128:128-f80:128-n8:16:32:64-S128"
target triple = "x86_64-pc-linux-gnu"

%struct.instr_time = type { i64 }
%struct.timespec = type { i64, i64 }

; Function Attrs: inlinehint nounwind uwtable
define internal i64 @pg_clock_gettime_ns() #3 {
  %1 = alloca %struct.instr_time, align 8
  %2 = alloca %struct.timespec, align 8
  call void @llvm.lifetime.start.p0(i64 16, ptr %2) #8
  %3 = call i32 @clock_gettime(i32 noundef 1, ptr noundef %2) #8
  %4 = getelementptr inbounds nuw %struct.timespec, ptr %2, i32 0, i32 0
  %5 = load i64, ptr %4, align 8
  %6 = mul i64 %5, 1000000000
  %7 = getelementptr inbounds nuw %struct.timespec, ptr %2, i32 0, i32 1
  %8 = load i64, ptr %7, align 8
  %9 = add i64 %6, %8
  %10 = getelementptr inbounds nuw %struct.instr_time, ptr %1, i32 0, i32 0
  store i64 %9, ptr %10, align 8
  call void @llvm.lifetime.end.p0(i64 16, ptr %2) #8
  %11 = getelementptr inbounds nuw %struct.instr_time, ptr %1, i32 0, i32 0
  %12 = load i64, ptr %11, align 8
  ret i64 %12
}

; Function Attrs: nounwind uwtable
define dso_local i64 @pgstat_prepare_io_time(i1 noundef zeroext %0) #0 {
  %2 = alloca %struct.instr_time, align 8
  %3 = alloca i8, align 1
  %4 = alloca %struct.instr_time, align 8
  %5 = zext i1 %0 to i8
  store i8 %5, ptr %3, align 1
  %6 = load i8, ptr %3, align 1, !range !8, !noundef !9
  %7 = trunc i8 %6 to i1
  br i1 %7, label %8, label %11

8:                                                ; preds = %1
  call void @llvm.lifetime.start.p0(i64 8, ptr %4) #8
  %9 = call i64 @pg_clock_gettime_ns()
  %10 = getelementptr inbounds nuw %struct.instr_time, ptr %4, i32 0, i32 0
  store i64 %9, ptr %10, align 8
  call void @llvm.memcpy.p0.p0.i64(ptr align 8 %2, ptr align 8 %4, i64 8, i1 false)
  call void @llvm.lifetime.end.p0(i64 8, ptr %4) #8
  br label %13

11:                                               ; preds = %1
  %12 = getelementptr inbounds nuw %struct.instr_time, ptr %2, i32 0, i32 0
  store i64 0, ptr %12, align 8
  br label %13

13:                                               ; preds = %11, %8
  %14 = getelementptr inbounds nuw %struct.instr_time, ptr %2, i32 0, i32 0
  %15 = load i64, ptr %14, align 8
  ret i64 %15
}