; Function Attrs: nounwind uwtable
define dso_local i64 @pgstat_prepare_io_time(i1 noundef zeroext %0) local_unnamed_addr #3 {
  %2 = alloca %struct.timespec, align 8
  br i1 %0, label %3, label %10

3:                                                ; preds = %1
  call void @llvm.lifetime.start.p0(i64 16, ptr nonnull %2) #11
  %4 = call i32 @clock_gettime(i32 noundef 1, ptr noundef nonnull %2) #11
  %5 = load i64, ptr %2, align 8
  %6 = mul i64 %5, 1000000000
  %7 = getelementptr inbounds nuw i8, ptr %2, i64 8
  %8 = load i64, ptr %7, align 8
  %9 = add i64 %6, %8
  call void @llvm.lifetime.end.p0(i64 16, ptr nonnull %2) #11
  br label %10

10:                                               ; preds = %1, %3
  %.sroa.01.0 = phi i64 [ %9, %3 ], [ 0, %1 ]
  ret i64 %.sroa.01.0
}